target datalayout = "e-m:e-p270:32:32-p271:32:32-p272:64:64-i64:64-i128:128-f80:128-n8:16:32:64-S128"
target triple = "x86_64-pc-linux-gnu"

%union.anon.2 = type { i32 }
%struct.PutBitContext = type { i32, i32, ptr, ptr, ptr }

@ff_mvtab = external constant [33 x [2 x i8]], align 16
@.str.5 = private unnamed_addr constant [43 x i8] c"Internal error, put_bits buffer too small\0A\00", align 1

; Function Attrs: alwaysinline nounwind willreturn memory(none) uwtable
define internal i32 @av_bswap32(i32 noundef %0) #8 {
  %2 = alloca i32, align 4
  store i32 %0, ptr %2, align 4, !tbaa !9
  %3 = load i32, ptr %2, align 4, !tbaa !9
  %4 = shl i32 %3, 8
  %5 = and i32 %4, 65280
  %6 = load i32, ptr %2, align 4, !tbaa !9
  %7 = lshr i32 %6, 8
  %8 = and i32 %7, 255
  %9 = or i32 %5, %8
  %10 = shl i32 %9, 16
  %11 = load i32, ptr %2, align 4, !tbaa !9
  %12 = lshr i32 %11, 16
  %13 = shl i32 %12, 8
  %14 = and i32 %13, 65280
  %15 = load i32, ptr %2, align 4, !tbaa !9
  %16 = lshr i32 %15, 16
  %17 = lshr i32 %16, 8
  %18 = and i32 %17, 255
  %19 = or i32 %14, %18
  %20 = or i32 %10, %19
  ret i32 %20
}

; Function Attrs: inlinehint nounwind uwtable
define internal void @put_bits_no_assert(ptr noundef %0, i32 noundef %1, i32 noundef %2) #3 {
  %4 = alloca ptr, align 8
  %5 = alloca i32, align 4
  %6 = alloca i32, align 4
  %7 = alloca i32, align 4
  %8 = alloca i32, align 4
  store ptr %0, ptr %4, align 8, !tbaa !4
  store i32 %1, ptr %5, align 4, !tbaa !9
  store i32 %2, ptr %6, align 4, !tbaa !9
  call void @llvm.lifetime.start.p0(i64 4, ptr %7) #11
  call void @llvm.lifetime.start.p0(i64 4, ptr %8) #11
  %9 = load ptr, ptr %4, align 8, !tbaa !4
  %10 = getelementptr inbounds nuw %struct.PutBitContext, ptr %9, i32 0, i32 0
  %11 = load i32, ptr %10, align 8, !tbaa !156
  store i32 %11, ptr %7, align 4, !tbaa !9
  %12 = load ptr, ptr %4, align 8, !tbaa !4
  %13 = getelementptr inbounds nuw %struct.PutBitContext, ptr %12, i32 0, i32 1
  %14 = load i32, ptr %13, align 4, !tbaa !157
  store i32 %14, ptr %8, align 4, !tbaa !9
  %15 = load i32, ptr %5, align 4, !tbaa !9
  %16 = load i32, ptr %8, align 4, !tbaa !9
  %17 = icmp slt i32 %15, %16
  br i1 %17, label %18, label %27

18:                                               ; preds = %3
  %19 = load i32, ptr %7, align 4, !tbaa !9
  %20 = load i32, ptr %5, align 4, !tbaa !9
  %21 = shl i32 %19, %20
  %22 = load i32, ptr %6, align 4, !tbaa !9
  %23 = or i32 %21, %22
  store i32 %23, ptr %7, align 4, !tbaa !9
  %24 = load i32, ptr %5, align 4, !tbaa !9
  %25 = load i32, ptr %8, align 4, !tbaa !9
  %26 = sub nsw i32 %25, %24
  store i32 %26, ptr %8, align 4, !tbaa !9
  br label %65

27:                                               ; preds = %3
  %28 = load i32, ptr %8, align 4, !tbaa !9
  %29 = load i32, ptr %7, align 4, !tbaa !9
  %30 = shl i32 %29, %28
  store i32 %30, ptr %7, align 4, !tbaa !9
  %31 = load i32, ptr %6, align 4, !tbaa !9
  %32 = load i32, ptr %5, align 4, !tbaa !9
  %33 = load i32, ptr %8, align 4, !tbaa !9
  %34 = sub nsw i32 %32, %33
  %35 = lshr i32 %31, %34
  %36 = load i32, ptr %7, align 4, !tbaa !9
  %37 = or i32 %36, %35
  store i32 %37, ptr %7, align 4, !tbaa !9
  %38 = load ptr, ptr %4, align 8, !tbaa !4
  %39 = getelementptr inbounds nuw %struct.PutBitContext, ptr %38, i32 0, i32 4
  %40 = load ptr, ptr %39, align 8, !tbaa !158
  %41 = load ptr, ptr %4, align 8, !tbaa !4
  %42 = getelementptr inbounds nuw %struct.PutBitContext, ptr %41, i32 0, i32 3
  %43 = load ptr, ptr %42, align 8, !tbaa !159
  %44 = ptrtoint ptr %40 to i64
  %45 = ptrtoint ptr %43 to i64
  %46 = sub i64 %44, %45
  %47 = icmp uge i64 %46, 4
  br i1 %47, label %48, label %58

48:                                               ; preds = %27
  %49 = load i32, ptr %7, align 4, !tbaa !9
  %50 = call i32 @av_bswap32(i32 noundef %49) #12
  %51 = load ptr, ptr %4, align 8, !tbaa !4
  %52 = getelementptr inbounds nuw %struct.PutBitContext, ptr %51, i32 0, i32 3
  %53 = load ptr, ptr %52, align 8, !tbaa !159
  store i32 %50, ptr %53, align 1, !tbaa !11
  %54 = load ptr, ptr %4, align 8, !tbaa !4
  %55 = getelementptr inbounds nuw %struct.PutBitContext, ptr %54, i32 0, i32 3
  %56 = load ptr, ptr %55, align 8, !tbaa !159
  %57 = getelementptr inbounds nuw i8, ptr %56, i64 4
  store ptr %57, ptr %55, align 8, !tbaa !159
  br label %59

58:                                               ; preds = %27
  call void (ptr, i32, ptr, ...) @av_log(ptr noundef null, i32 noundef 16, ptr noundef @.str.5)
  br label %59

59:                                               ; preds = %58, %48
  %60 = load i32, ptr %5, align 4, !tbaa !9
  %61 = sub nsw i32 32, %60
  %62 = load i32, ptr %8, align 4, !tbaa !9
  %63 = add nsw i32 %62, %61
  store i32 %63, ptr %8, align 4, !tbaa !9
  %64 = load i32, ptr %6, align 4, !tbaa !9
  store i32 %64, ptr %7, align 4, !tbaa !9
  br label %65

65:                                               ; preds = %59, %18
  %66 = load i32, ptr %7, align 4, !tbaa !9
  %67 = load ptr, ptr %4, align 8, !tbaa !4
  %68 = getelementptr inbounds nuw %struct.PutBitContext, ptr %67, i32 0, i32 0
  store i32 %66, ptr %68, align 8, !tbaa !156
  %69 = load i32, ptr %8, align 4, !tbaa !9
  %70 = load ptr, ptr %4, align 8, !tbaa !4
  %71 = getelementptr inbounds nuw %struct.PutBitContext, ptr %70, i32 0, i32 1
  store i32 %69, ptr %71, align 4, !tbaa !157
  call void @llvm.lifetime.end.p0(i64 4, ptr %8) #11
  call void @llvm.lifetime.end.p0(i64 4, ptr %7) #11
  ret void
}

; Function Attrs: inlinehint nounwind willreturn memory(none) uwtable
define internal i32 @sign_extend(i32 noundef %0, i32 noundef %1) #5 {
  %3 = alloca i32, align 4
  %4 = alloca i32, align 4
  %5 = alloca i32, align 4
  %6 = alloca %union.anon.2, align 4
  store i32 %0, ptr %3, align 4, !tbaa !9
  store i32 %1, ptr %4, align 4, !tbaa !9
  call void @llvm.lifetime.start.p0(i64 4, ptr %5) #11
  %7 = load i32, ptr %4, align 4, !tbaa !9
  %8 = zext i32 %7 to i64
  %9 = sub i64 32, %8
  %10 = trunc i64 %9 to i32
  store i32 %10, ptr %5, align 4, !tbaa !9
  call void @llvm.lifetime.start.p0(i64 4, ptr %6) #11
  %11 = load i32, ptr %3, align 4, !tbaa !9
  %12 = load i32, ptr %5, align 4, !tbaa !9
  %13 = shl i32 %11, %12
  store i32 %13, ptr %6, align 4, !tbaa !11
  %14 = load i32, ptr %6, align 4, !tbaa !11
  %15 = load i32, ptr %5, align 4, !tbaa !9
  %16 = ashr i32 %14, %15
  call void @llvm.lifetime.end.p0(i64 4, ptr %6) #11
  call void @llvm.lifetime.end.p0(i64 4, ptr %5) #11
  ret i32 %16
}

; Function Attrs: inlinehint nounwind uwtable
define internal void @put_bits(ptr noundef %0, i32 noundef %1, i32 noundef %2) #3 {
  %4 = alloca ptr, align 8
  %5 = alloca i32, align 4
  %6 = alloca i32, align 4
  store ptr %0, ptr %4, align 8, !tbaa !4
  store i32 %1, ptr %5, align 4, !tbaa !9
  store i32 %2, ptr %6, align 4, !tbaa !9
  %7 = load ptr, ptr %4, align 8, !tbaa !4
  %8 = load i32, ptr %5, align 4, !tbaa !9
  %9 = load i32, ptr %6, align 4, !tbaa !9
  call void @put_bits_no_assert(ptr noundef %7, i32 noundef %8, i32 noundef %9)
  ret void
}

; Function Attrs: nounwind uwtable
define void @ff_h263_encode_motion(ptr noundef %0, i32 noundef %1, i32 noundef %2) #2 {
  %4 = alloca ptr, align 8
  %5 = alloca i32, align 4
  %6 = alloca i32, align 4
  %7 = alloca i32, align 4
  %8 = alloca i32, align 4
  %9 = alloca i32, align 4
  %10 = alloca i32, align 4
  %11 = alloca i32, align 4
  store ptr %0, ptr %4, align 8, !tbaa !4
  store i32 %1, ptr %5, align 4, !tbaa !9
  store i32 %2, ptr %6, align 4, !tbaa !9
  %12 = load i32, ptr %5, align 4, !tbaa !9
  %13 = icmp eq i32 %12, 0
  br i1 %13, label %14, label %16

14:                                               ; preds = %3
  %15 = load ptr, ptr %4, align 8, !tbaa !4
  call void @put_bits(ptr noundef %15, i32 noundef 1, i32 noundef 1)
  br label %68

16:                                               ; preds = %3
  call void @llvm.lifetime.start.p0(i64 4, ptr %7) #11
  call void @llvm.lifetime.start.p0(i64 4, ptr %8) #11
  call void @llvm.lifetime.start.p0(i64 4, ptr %9) #11
  call void @llvm.lifetime.start.p0(i64 4, ptr %10) #11
  %17 = load i32, ptr %6, align 4, !tbaa !9
  %18 = sub nsw i32 %17, 1
  store i32 %18, ptr %10, align 4, !tbaa !9
  call void @llvm.lifetime.start.p0(i64 4, ptr %11) #11
  %19 = load i32, ptr %10, align 4, !tbaa !9
  %20 = shl i32 1, %19
  store i32 %20, ptr %11, align 4, !tbaa !9
  %21 = load i32, ptr %5, align 4, !tbaa !9
  %22 = load i32, ptr %10, align 4, !tbaa !9
  %23 = add nsw i32 6, %22
  %24 = call i32 @sign_extend(i32 noundef %21, i32 noundef %23) #12
  store i32 %24, ptr %5, align 4, !tbaa !9
  %25 = load i32, ptr %5, align 4, !tbaa !9
  %26 = ashr i32 %25, 31
  store i32 %26, ptr %7, align 4, !tbaa !9
  %27 = load i32, ptr %5, align 4, !tbaa !9
  %28 = load i32, ptr %7, align 4, !tbaa !9
  %29 = xor i32 %27, %28
  %30 = load i32, ptr %7, align 4, !tbaa !9
  %31 = sub nsw i32 %29, %30
  store i32 %31, ptr %5, align 4, !tbaa !9
  %32 = load i32, ptr %7, align 4, !tbaa !9
  %33 = and i32 %32, 1
  store i32 %33, ptr %7, align 4, !tbaa !9
  %34 = load i32, ptr %5, align 4, !tbaa !9
  %35 = add nsw i32 %34, -1
  store i32 %35, ptr %5, align 4, !tbaa !9
  %36 = load i32, ptr %5, align 4, !tbaa !9
  %37 = load i32, ptr %10, align 4, !tbaa !9
  %38 = ashr i32 %36, %37
  %39 = add nsw i32 %38, 1
  store i32 %39, ptr %8, align 4, !tbaa !9
  %40 = load i32, ptr %5, align 4, !tbaa !9
  %41 = load i32, ptr %11, align 4, !tbaa !9
  %42 = sub nsw i32 %41, 1
  %43 = and i32 %40, %42
  store i32 %43, ptr %9, align 4, !tbaa !9
  %44 = load ptr, ptr %4, align 8, !tbaa !4
  %45 = load i32, ptr %8, align 4, !tbaa !9
  %46 = sext i32 %45 to i64
  %47 = getelementptr inbounds [33 x [2 x i8]], ptr @ff_mvtab, i64 0, i64 %46
  %48 = getelementptr inbounds [2 x i8], ptr %47, i64 0, i64 1
  %49 = load i8, ptr %48, align 1, !tbaa !11
  %50 = zext i8 %49 to i32
  %51 = add nsw i32 %50, 1
  %52 = load i32, ptr %8, align 4, !tbaa !9
  %53 = sext i32 %52 to i64
  %54 = getelementptr inbounds [33 x [2 x i8]], ptr @ff_mvtab, i64 0, i64 %53
  %55 = getelementptr inbounds [2 x i8], ptr %54, i64 0, i64 0
  %56 = load i8, ptr %55, align 2, !tbaa !11
  %57 = zext i8 %56 to i32
  %58 = shl i32 %57, 1
  %59 = load i32, ptr %7, align 4, !tbaa !9
  %60 = or i32 %58, %59
  call void @put_bits(ptr noundef %44, i32 noundef %51, i32 noundef %60)
  %61 = load i32, ptr %10, align 4, !tbaa !9
  %62 = icmp sgt i32 %61, 0
  br i1 %62, label %63, label %67

63:                                               ; preds = %16
  %64 = load ptr, ptr %4, align 8, !tbaa !4
  %65 = load i32, ptr %10, align 4, !tbaa !9
  %66 = load i32, ptr %9, align 4, !tbaa !9
  call void @put_bits(ptr noundef %64, i32 noundef %65, i32 noundef %66)
  br label %67

67:                                               ; preds = %63, %16
  call void @llvm.lifetime.end.p0(i64 4, ptr %11) #11
  call void @llvm.lifetime.end.p0(i64 4, ptr %10) #11
  call void @llvm.lifetime.end.p0(i64 4, ptr %9) #11
  call void @llvm.lifetime.end.p0(i64 4, ptr %8) #11
  call void @llvm.lifetime.end.p0(i64 4, ptr %7) #11
  br label %68

68:                                               ; preds = %67, %14
  ret void
}