; Function Attrs: nounwind uwtable
define void @ff_h263_encode_motion(ptr noundef captures(none) %0, i32 noundef %1, i32 noundef %2) local_unnamed_addr #2 {
  %4 = icmp eq i32 %1, 0
  br i1 %4, label %5, label %32

5:                                                ; preds = %3
  %6 = load i32, ptr %0, align 8, !tbaa !4
  %7 = getelementptr inbounds nuw i8, ptr %0, i64 4
  %8 = load i32, ptr %7, align 4, !tbaa !11
  %9 = icmp sgt i32 %8, 1
  br i1 %9, label %10, label %13

10:                                               ; preds = %5
  %11 = shl i32 %6, 1
  %12 = or disjoint i32 %11, 1
  br label %put_bits.exit

13:                                               ; preds = %5
  %14 = getelementptr inbounds nuw i8, ptr %0, i64 24
  %15 = load ptr, ptr %14, align 8, !tbaa !12
  %16 = getelementptr inbounds nuw i8, ptr %0, i64 16
  %17 = load ptr, ptr %16, align 8, !tbaa !13
  %18 = ptrtoint ptr %15 to i64
  %19 = ptrtoint ptr %17 to i64
  %20 = sub i64 %18, %19
  %21 = icmp ugt i64 %20, 3
  br i1 %21, label %22, label %30

22:                                               ; preds = %13
  %23 = shl i32 %6, %8
  %24 = sub nsw i32 1, %8
  %25 = lshr i32 1, %24
  %26 = or i32 %25, %23
  %27 = tail call i32 @llvm.bswap.i32(i32 %26)
  store i32 %27, ptr %17, align 1, !tbaa !14
  %28 = load ptr, ptr %16, align 8, !tbaa !13
  %29 = getelementptr inbounds nuw i8, ptr %28, i64 4
  store ptr %29, ptr %16, align 8, !tbaa !13
  br label %put_bits.exit

30:                                               ; preds = %13
  tail call void (ptr, i32, ptr, ...) @av_log(ptr noundef null, i32 noundef 16, ptr noundef nonnull @.str.5) #11
  br label %put_bits.exit

put_bits.exit:                                    ; preds = %22, %30, %10
  %.sink = phi i32 [ -1, %10 ], [ 31, %30 ], [ 31, %22 ]
  %.026.i.i = phi i32 [ %12, %10 ], [ 1, %30 ], [ 1, %22 ]
  %31 = add nsw i32 %8, %.sink
  store i32 %.026.i.i, ptr %0, align 8, !tbaa !4
  store i32 %31, ptr %7, align 4, !tbaa !11
  br label %108

32:                                               ; preds = %3
  %33 = add nsw i32 %2, -1
  %34 = sub i32 27, %2
  %35 = shl i32 %1, %34
  %36 = ashr exact i32 %35, %34
  %37 = ashr i32 %36, 31
  %38 = xor i32 %37, %36
  %39 = xor i32 %37, -1
  %40 = add i32 %38, %39
  %41 = ashr i32 %40, %33
  %42 = add nsw i32 %41, 1
  %43 = sext i32 %42 to i64
  %44 = getelementptr inbounds [33 x [2 x i8]], ptr @ff_mvtab, i64 0, i64 %43
  %45 = getelementptr inbounds nuw i8, ptr %44, i64 1
  %46 = load i8, ptr %45, align 1, !tbaa !14
  %47 = zext i8 %46 to i32
  %48 = add nuw nsw i32 %47, 1
  %49 = load i8, ptr %44, align 2, !tbaa !14
  %50 = zext i8 %49 to i32
  %51 = tail call i32 @llvm.fshl.i32(i32 %50, i32 %36, i32 1)
  %52 = load i32, ptr %0, align 8, !tbaa !4
  %53 = getelementptr inbounds nuw i8, ptr %0, i64 4
  %54 = load i32, ptr %53, align 4, !tbaa !11
  %55 = icmp slt i32 %48, %54
  br i1 %55, label %56, label %60

56:                                               ; preds = %32
  %57 = shl i32 %52, %48
  %58 = or i32 %57, %51
  %59 = sub nsw i32 %54, %48
  br label %put_bits.exit27

60:                                               ; preds = %32
  %61 = getelementptr inbounds nuw i8, ptr %0, i64 24
  %62 = load ptr, ptr %61, align 8, !tbaa !12
  %63 = getelementptr inbounds nuw i8, ptr %0, i64 16
  %64 = load ptr, ptr %63, align 8, !tbaa !13
  %65 = ptrtoint ptr %62 to i64
  %66 = ptrtoint ptr %64 to i64
  %67 = sub i64 %65, %66
  %68 = icmp ugt i64 %67, 3
  br i1 %68, label %69, label %77

69:                                               ; preds = %60
  %70 = shl i32 %52, %54
  %71 = sub nsw i32 %48, %54
  %72 = lshr i32 %51, %71
  %73 = or i32 %72, %70
  %74 = tail call i32 @llvm.bswap.i32(i32 %73)
  store i32 %74, ptr %64, align 1, !tbaa !14
  %75 = load ptr, ptr %63, align 8, !tbaa !13
  %76 = getelementptr inbounds nuw i8, ptr %75, i64 4
  store ptr %76, ptr %63, align 8, !tbaa !13
  br label %78

77:                                               ; preds = %60
  tail call void (ptr, i32, ptr, ...) @av_log(ptr noundef null, i32 noundef 16, ptr noundef nonnull @.str.5) #11
  br label %78

78:                                               ; preds = %77, %69
  %reass.sub = sub i32 %54, %47
  %79 = add i32 %reass.sub, 31
  br label %put_bits.exit27

put_bits.exit27:                                  ; preds = %56, %78
  %.026.i.i25 = phi i32 [ %58, %56 ], [ %51, %78 ]
  %.0.i.i26 = phi i32 [ %59, %56 ], [ %79, %78 ]
  store i32 %.026.i.i25, ptr %0, align 8, !tbaa !4
  store i32 %.0.i.i26, ptr %53, align 4, !tbaa !11
  %80 = icmp sgt i32 %2, 1
  br i1 %80, label %81, label %108

81:                                               ; preds = %put_bits.exit27
  %notmask = shl nsw i32 -1, %33
  %82 = xor i32 %notmask, -1
  %83 = and i32 %40, %82
  %.not = icmp sgt i32 %2, %.0.i.i26
  br i1 %.not, label %88, label %84

84:                                               ; preds = %81
  %85 = shl i32 %.026.i.i25, %33
  %86 = or i32 %85, %83
  %87 = sub nsw i32 %.0.i.i26, %33
  br label %put_bits.exit31

88:                                               ; preds = %81
  %89 = getelementptr inbounds nuw i8, ptr %0, i64 24
  %90 = load ptr, ptr %89, align 8, !tbaa !12
  %91 = getelementptr inbounds nuw i8, ptr %0, i64 16
  %92 = load ptr, ptr %91, align 8, !tbaa !13
  %93 = ptrtoint ptr %90 to i64
  %94 = ptrtoint ptr %92 to i64
  %95 = sub i64 %93, %94
  %96 = icmp ugt i64 %95, 3
  br i1 %96, label %97, label %105

97:                                               ; preds = %88
  %98 = shl i32 %.026.i.i25, %.0.i.i26
  %99 = sub nsw i32 %33, %.0.i.i26
  %100 = lshr i32 %83, %99
  %101 = or i32 %100, %98
  %102 = tail call i32 @llvm.bswap.i32(i32 %101)
  store i32 %102, ptr %92, align 1, !tbaa !14
  %103 = load ptr, ptr %91, align 8, !tbaa !13
  %104 = getelementptr inbounds nuw i8, ptr %103, i64 4
  store ptr %104, ptr %91, align 8, !tbaa !13
  br label %106

105:                                              ; preds = %88
  tail call void (ptr, i32, ptr, ...) @av_log(ptr noundef null, i32 noundef 16, ptr noundef nonnull @.str.5) #11
  br label %106

106:                                              ; preds = %105, %97
  %reass.sub33 = sub i32 %.0.i.i26, %2
  %107 = add i32 %reass.sub33, 33
  br label %put_bits.exit31

put_bits.exit31:                                  ; preds = %84, %106
  %.026.i.i29 = phi i32 [ %86, %84 ], [ %83, %106 ]
  %.0.i.i30 = phi i32 [ %87, %84 ], [ %107, %106 ]
  store i32 %.026.i.i29, ptr %0, align 8, !tbaa !4
  store i32 %.0.i.i30, ptr %53, align 4, !tbaa !11
  br label %108

108:                                              ; preds = %put_bits.exit27, %put_bits.exit31, %put_bits.exit
  ret void
}